; ModuleID = '22/46.c'
source_filename = "22/46.c"
target datalayout = "e-m:e-p270:32:32-p271:32:32-p272:64:64-i64:64-f80:128-n8:16:32:64-S128"
target triple = "x86_64-pc-linux-gnu"

@.str = private unnamed_addr constant [3 x i8] c"No\00", align 1
@.str.1 = private unnamed_addr constant [3 x i8] c"%d\00", align 1

; Function Attrs: noinline nounwind uwtable
define dso_local void @main() #0 {
  %1 = alloca i32, align 4
  %2 = alloca i32, align 4
  %3 = alloca i32, align 4
  %4 = alloca i32, align 4
  %5 = alloca i32, align 4
  %6 = alloca [300 x i32], align 16
  %7 = alloca [1500 x i8], align 16
  %8 = bitcast [300 x i32]* %6 to i8*
  call void @llvm.memset.p0i8.i64(i8* align 16 %8, i8 0, i64 1200, i1 false)
  %9 = bitcast [1500 x i8]* %7 to i8*
  call void @llvm.memset.p0i8.i64(i8* align 16 %9, i8 0, i64 1500, i1 false)
  %10 = getelementptr inbounds [1500 x i8], [1500 x i8]* %7, i64 0, i64 0
  %11 = call i32 (i8*, ...) bitcast (i32 (...)* @gets to i32 (i8*, ...)*)(i8* %10)
  %12 = getelementptr inbounds [1500 x i8], [1500 x i8]* %7, i64 0, i64 0
  %13 = call i64 @strlen(i8* %12) #4
  %14 = trunc i64 %13 to i32
  store i32 %14, i32* %1, align 4
  store i32 0, i32* %3, align 4
  store i32 0, i32* %2, align 4
  br label %15

15:                                               ; preds = %46, %0
  %16 = load i32, i32* %2, align 4
  %17 = load i32, i32* %1, align 4
  %18 = icmp slt i32 %16, %17
  br i1 %18, label %19, label %49

19:                                               ; preds = %15
  %20 = load i32, i32* %2, align 4
  %21 = sext i32 %20 to i64
  %22 = getelementptr inbounds [1500 x i8], [1500 x i8]* %7, i64 0, i64 %21
  %23 = load i8, i8* %22, align 1
  %24 = sext i8 %23 to i32
  %25 = icmp ne i32 %24, 44
  br i1 %25, label %26, label %42

26:                                               ; preds = %19
  %27 = load i32, i32* %3, align 4
  %28 = sext i32 %27 to i64
  %29 = getelementptr inbounds [300 x i32], [300 x i32]* %6, i64 0, i64 %28
  %30 = load i32, i32* %29, align 4
  %31 = mul nsw i32 %30, 10
  %32 = load i32, i32* %2, align 4
  %33 = sext i32 %32 to i64
  %34 = getelementptr inbounds [1500 x i8], [1500 x i8]* %7, i64 0, i64 %33
  %35 = load i8, i8* %34, align 1
  %36 = sext i8 %35 to i32
  %37 = add nsw i32 %31, %36
  %38 = sub nsw i32 %37, 48
  %39 = load i32, i32* %3, align 4
  %40 = sext i32 %39 to i64
  %41 = getelementptr inbounds [300 x i32], [300 x i32]* %6, i64 0, i64 %40
  store i32 %38, i32* %41, align 4
  br label %45

42:                                               ; preds = %19
  %43 = load i32, i32* %3, align 4
  %44 = add nsw i32 %43, 1
  store i32 %44, i32* %3, align 4
  br label %45

45:                                               ; preds = %42, %26
  br label %46

46:                                               ; preds = %45
  %47 = load i32, i32* %2, align 4
  %48 = add nsw i32 %47, 1
  store i32 %48, i32* %2, align 4
  br label %15

49:                                               ; preds = %15
  %50 = load i32, i32* %3, align 4
  %51 = icmp eq i32 %50, 1
  br i1 %51, label %52, label %54

52:                                               ; preds = %49
  %53 = call i32 (i8*, ...) @printf(i8* getelementptr inbounds ([3 x i8], [3 x i8]* @.str, i64 0, i64 0))
  br label %130

54:                                               ; preds = %49
  store i32 0, i32* %2, align 4
  br label %55

55:                                               ; preds = %97, %54
  %56 = load i32, i32* %2, align 4
  %57 = load i32, i32* %3, align 4
  %58 = icmp sle i32 %56, %57
  br i1 %58, label %59, label %100

59:                                               ; preds = %55
  %60 = load i32, i32* %2, align 4
  %61 = add nsw i32 %60, 1
  store i32 %61, i32* %4, align 4
  br label %62

62:                                               ; preds = %93, %59
  %63 = load i32, i32* %4, align 4
  %64 = load i32, i32* %3, align 4
  %65 = icmp sle i32 %63, %64
  br i1 %65, label %66, label %96

66:                                               ; preds = %62
  %67 = load i32, i32* %2, align 4
  %68 = sext i32 %67 to i64
  %69 = getelementptr inbounds [300 x i32], [300 x i32]* %6, i64 0, i64 %68
  %70 = load i32, i32* %69, align 4
  %71 = load i32, i32* %4, align 4
  %72 = sext i32 %71 to i64
  %73 = getelementptr inbounds [300 x i32], [300 x i32]* %6, i64 0, i64 %72
  %74 = load i32, i32* %73, align 4
  %75 = icmp slt i32 %70, %74
  br i1 %75, label %76, label %92

76:                                               ; preds = %66
  %77 = load i32, i32* %2, align 4
  %78 = sext i32 %77 to i64
  %79 = getelementptr inbounds [300 x i32], [300 x i32]* %6, i64 0, i64 %78
  %80 = load i32, i32* %79, align 4
  store i32 %80, i32* %5, align 4
  %81 = load i32, i32* %4, align 4
  %82 = sext i32 %81 to i64
  %83 = getelementptr inbounds [300 x i32], [300 x i32]* %6, i64 0, i64 %82
  %84 = load i32, i32* %83, align 4
  %85 = load i32, i32* %2, align 4
  %86 = sext i32 %85 to i64
  %87 = getelementptr inbounds [300 x i32], [300 x i32]* %6, i64 0, i64 %86
  store i32 %84, i32* %87, align 4
  %88 = load i32, i32* %5, align 4
  %89 = load i32, i32* %4, align 4
  %90 = sext i32 %89 to i64
  %91 = getelementptr inbounds [300 x i32], [300 x i32]* %6, i64 0, i64 %90
  store i32 %88, i32* %91, align 4
  br label %92

92:                                               ; preds = %76, %66
  br label %93

93:                                               ; preds = %92
  %94 = load i32, i32* %4, align 4
  %95 = add nsw i32 %94, 1
  store i32 %95, i32* %4, align 4
  br label %62

96:                                               ; preds = %62
  br label %97

97:                                               ; preds = %96
  %98 = load i32, i32* %2, align 4
  %99 = add nsw i32 %98, 1
  store i32 %99, i32* %2, align 4
  br label %55

100:                                              ; preds = %55
  %101 = getelementptr inbounds [300 x i32], [300 x i32]* %6, i64 0, i64 0
  %102 = load i32, i32* %101, align 16
  %103 = load i32, i32* %3, align 4
  %104 = sext i32 %103 to i64
  %105 = getelementptr inbounds [300 x i32], [300 x i32]* %6, i64 0, i64 %104
  %106 = load i32, i32* %105, align 4
  %107 = icmp eq i32 %102, %106
  br i1 %107, label %108, label %110

108:                                              ; preds = %100
  %109 = call i32 (i8*, ...) @printf(i8* getelementptr inbounds ([3 x i8], [3 x i8]* @.str, i64 0, i64 0))
  br label %129

110:                                              ; preds = %100
  %111 = getelementptr inbounds [300 x i32], [300 x i32]* %6, i64 0, i64 0
  %112 = load i32, i32* %111, align 16
  store i32 %112, i32* %1, align 4
  store i32 0, i32* %2, align 4
  br label %113

113:                                              ; preds = %116, %110
  %114 = load i32, i32* %2, align 4
  %115 = add nsw i32 %114, 1
  store i32 %115, i32* %2, align 4
  br label %116

116:                                              ; preds = %113
  %117 = load i32, i32* %2, align 4
  %118 = sext i32 %117 to i64
  %119 = getelementptr inbounds [300 x i32], [300 x i32]* %6, i64 0, i64 %118
  %120 = load i32, i32* %119, align 4
  %121 = load i32, i32* %1, align 4
  %122 = icmp eq i32 %120, %121
  br i1 %122, label %113, label %123

123:                                              ; preds = %116
  %124 = load i32, i32* %2, align 4
  %125 = sext i32 %124 to i64
  %126 = getelementptr inbounds [300 x i32], [300 x i32]* %6, i64 0, i64 %125
  %127 = load i32, i32* %126, align 4
  %128 = call i32 (i8*, ...) @printf(i8* getelementptr inbounds ([3 x i8], [3 x i8]* @.str.1, i64 0, i64 0), i32 %127)
  br label %129

129:                                              ; preds = %123, %108
  br label %130

130:                                              ; preds = %129, %52
  ret void
}

; Function Attrs: argmemonly nounwind willreturn
declare void @llvm.memset.p0i8.i64(i8* nocapture writeonly, i8, i64, i1 immarg) #1

declare dso_local i32 @gets(...) #2

; Function Attrs: nounwind readonly
declare dso_local i64 @strlen(i8*) #3

declare dso_local i32 @printf(i8*, ...) #2


!llvm.module.flags = !{!0}
!llvm.ident = !{!1}

!0 = !{i32 1, !"wchar_size", i32 4}
!1 = !{!"clang version 10.0.0-4ubuntu1 "}
